; Function Attrs: mustprogress nofree norecurse nosync nounwind willreturn memory(read, inaccessiblemem: none) uwtable
define noundef float @_ZNK15b2RevoluteJoint13GetJointAngleEv(ptr nocapture noundef nonnull readonly align 8 dereferenceable(272) %this) local_unnamed_addr #9 align 2 {
entry:
  %m_bodyA = getelementptr inbounds i8, ptr %this, i64 96
  %0 = load ptr, ptr %m_bodyA, align 8
  %m_bodyB = getelementptr inbounds i8, ptr %this, i64 104
  %1 = load ptr, ptr %m_bodyB, align 8
  %a = getelementptr inbounds i8, ptr %1, i64 56
  %2 = load float, ptr %a, align 4
  %a3 = getelementptr inbounds i8, ptr %0, i64 56
  %3 = load float, ptr %a3, align 4
  %sub = fsub float %2, %3
  %m_referenceAngle = getelementptr inbounds i8, ptr %this, i64 180
  %4 = load float, ptr %m_referenceAngle, align 4
  %sub4 = fsub float %sub, %4
  ret float %sub4
}